target datalayout = "e-m:e-p270:32:32-p271:32:32-p272:64:64-i64:64-i128:128-f80:128-n8:16:32:64-S128"
target triple = "x86_64-pc-linux-gnu"

%class.btSequentialImpulseConstraintSolverMt = type { %class.btSequentialImpulseConstraintSolver, %struct.btBatchedConstraints, %struct.btBatchedConstraints, i32, i8, i8, [2 x i8], %class.btAlignedObjectArray.10, %class.btAlignedObjectArray.2, %class.btSpinMutex, [64 x i8], %class.btSpinMutex, %class.btAlignedObjectArray.8 }
%class.btSequentialImpulseConstraintSolver = type { %class.btConstraintSolver, %class.btAlignedObjectArray, %class.btAlignedObjectArray.0, %class.btAlignedObjectArray.0, %class.btAlignedObjectArray.0, %class.btAlignedObjectArray.0, %class.btAlignedObjectArray.2, %class.btAlignedObjectArray.2, %class.btAlignedObjectArray.2, %class.btAlignedObjectArray.4, i32, i32, %class.btAlignedObjectArray.2, ptr, ptr, ptr, i32, float, i64, %struct.btSolverAnalyticsData }
%class.btConstraintSolver = type { ptr }
%class.btAlignedObjectArray = type <{ [4 x i8], i32, i32, [4 x i8], ptr, i8, [7 x i8] }>
%class.btAlignedObjectArray.0 = type <{ [4 x i8], i32, i32, [4 x i8], ptr, i8, [7 x i8] }>
%class.btAlignedObjectArray.4 = type <{ [4 x i8], i32, i32, [4 x i8], ptr, i8, [7 x i8] }>
%struct.btSolverAnalyticsData = type { i32, i32, i32, i32, i32, double }
%struct.btBatchedConstraints = type { %class.btAlignedObjectArray.2, %class.btAlignedObjectArray.6, %class.btAlignedObjectArray.6, %class.btAlignedObjectArray.8, %class.btAlignedObjectArray.2, ptr }
%class.btAlignedObjectArray.6 = type <{ [4 x i8], i32, i32, [4 x i8], ptr, i8, [7 x i8] }>
%class.btAlignedObjectArray.10 = type <{ [4 x i8], i32, i32, [4 x i8], ptr, i8, [7 x i8] }>
%class.btAlignedObjectArray.2 = type <{ [4 x i8], i32, i32, [4 x i8], ptr, i8, [7 x i8] }>
%class.btSpinMutex = type { i32 }
%class.btAlignedObjectArray.8 = type <{ [4 x i8], i32, i32, [4 x i8], ptr, i8, [7 x i8] }>
%struct.btContactSolverInfoData = type { float, float, float, float, float, i32, float, float, float, float, float, float, float, float, float, float, i32, float, float, float, float, float, i32, i32, i32, float, float, float, float, i8, i8, i32, i32 }

@_ZN37btSequentialImpulseConstraintSolverMt29s_allowNestedParallelForLoopsE = dso_local global i8 0, align 1
@_ZN37btSequentialImpulseConstraintSolverMt36s_minimumContactManifoldsForBatchingE = dso_local global i32 250, align 4

; Function Attrs: mustprogress uwtable
define dso_local noundef float @_ZN37btSequentialImpulseConstraintSolverMt28solveGroupCacheFriendlySetupEPP17btCollisionObjectiPP20btPersistentManifoldiPP17btTypedConstraintiRK19btContactSolverInfoP12btIDebugDraw(ptr noundef nonnull align 8 dereferenceable(920) %0, ptr noundef %1, i32 noundef %2, ptr noundef %3, i32 noundef %4, ptr noundef %5, i32 noundef %6, ptr noundef nonnull align 4 dereferenceable(128) %7, ptr noundef %8) unnamed_addr #2 align 2 {
  %10 = alloca ptr, align 8
  %11 = alloca ptr, align 8
  %12 = alloca i32, align 4
  %13 = alloca ptr, align 8
  %14 = alloca i32, align 4
  %15 = alloca ptr, align 8
  %16 = alloca i32, align 4
  %17 = alloca ptr, align 8
  %18 = alloca ptr, align 8
  store ptr %0, ptr %10, align 8, !tbaa !12
  store ptr %1, ptr %11, align 8, !tbaa !235
  store i32 %2, ptr %12, align 4, !tbaa !9
  store ptr %3, ptr %13, align 8, !tbaa !148
  store i32 %4, ptr %14, align 4, !tbaa !9
  store ptr %5, ptr %15, align 8, !tbaa !190
  store i32 %6, ptr %16, align 4, !tbaa !9
  store ptr %7, ptr %17, align 8, !tbaa !66
  store ptr %8, ptr %18, align 8, !tbaa !252
  %19 = load ptr, ptr %10, align 8
  %20 = load ptr, ptr %17, align 8, !tbaa !66
  %21 = getelementptr inbounds nuw %struct.btContactSolverInfoData, ptr %20, i32 0, i32 22
  %22 = load i32, ptr %21, align 4, !tbaa !92
  %23 = and i32 %22, 16
  %24 = icmp ne i32 %23, 0
  %25 = select i1 %24, i32 2, i32 1
  %26 = getelementptr inbounds nuw %class.btSequentialImpulseConstraintSolverMt, ptr %19, i32 0, i32 3
  store i32 %25, ptr %26, align 8, !tbaa !16
  %27 = getelementptr inbounds nuw %class.btSequentialImpulseConstraintSolverMt, ptr %19, i32 0, i32 4
  store i8 0, ptr %27, align 4, !tbaa !49
  %28 = load i32, ptr %14, align 4, !tbaa !9
  %29 = load i32, ptr @_ZN37btSequentialImpulseConstraintSolverMt36s_minimumContactManifoldsForBatchingE, align 4, !tbaa !9
  %30 = icmp sge i32 %28, %29
  br i1 %30, label %31, label %44

31:                                               ; preds = %9
  %32 = load i8, ptr @_ZN37btSequentialImpulseConstraintSolverMt29s_allowNestedParallelForLoopsE, align 1, !tbaa !131, !range !109, !noundef !110
  %33 = trunc i8 %32 to i1
  br i1 %33, label %36, label %34

34:                                               ; preds = %31
  %35 = call noundef zeroext i1 @_Z19btThreadsAreRunningv()
  br i1 %35, label %44, label %36

36:                                               ; preds = %34, %31
  %37 = getelementptr inbounds nuw %class.btSequentialImpulseConstraintSolverMt, ptr %19, i32 0, i32 4
  store i8 1, ptr %37, align 4, !tbaa !49
  %38 = load ptr, ptr %18, align 8, !tbaa !252
  %39 = getelementptr inbounds nuw %class.btSequentialImpulseConstraintSolverMt, ptr %19, i32 0, i32 1
  %40 = getelementptr inbounds nuw %struct.btBatchedConstraints, ptr %39, i32 0, i32 5
  store ptr %38, ptr %40, align 8, !tbaa !253
  %41 = load ptr, ptr %18, align 8, !tbaa !252
  %42 = getelementptr inbounds nuw %class.btSequentialImpulseConstraintSolverMt, ptr %19, i32 0, i32 2
  %43 = getelementptr inbounds nuw %struct.btBatchedConstraints, ptr %42, i32 0, i32 5
  store ptr %41, ptr %43, align 8, !tbaa !254
  br label %44

44:                                               ; preds = %36, %34, %9
  %45 = load ptr, ptr %11, align 8, !tbaa !235
  %46 = load i32, ptr %12, align 4, !tbaa !9
  %47 = load ptr, ptr %13, align 8, !tbaa !148
  %48 = load i32, ptr %14, align 4, !tbaa !9
  %49 = load ptr, ptr %15, align 8, !tbaa !190
  %50 = load i32, ptr %16, align 4, !tbaa !9
  %51 = load ptr, ptr %17, align 8, !tbaa !66
  %52 = load ptr, ptr %18, align 8, !tbaa !252
  %53 = call noundef float @_ZN35btSequentialImpulseConstraintSolver28solveGroupCacheFriendlySetupEPP17btCollisionObjectiPP20btPersistentManifoldiPP17btTypedConstraintiRK19btContactSolverInfoP12btIDebugDraw(ptr noundef nonnull align 8 dereferenceable(408) %19, ptr noundef %45, i32 noundef %46, ptr noundef %47, i32 noundef %48, ptr noundef %49, i32 noundef %50, ptr noundef nonnull align 4 dereferenceable(128) %51, ptr noundef %52)
  ret float 0.000000e+00
}