; Function Attrs: mustprogress uwtable
define dso_local noundef float @_ZN37btSequentialImpulseConstraintSolverMt28solveGroupCacheFriendlySetupEPP17btCollisionObjectiPP20btPersistentManifoldiPP17btTypedConstraintiRK19btContactSolverInfoP12btIDebugDraw(ptr noundef nonnull align 8 dereferenceable(920) initializes((744, 749)) %0, ptr noundef %1, i32 noundef %2, ptr noundef %3, i32 noundef %4, ptr noundef %5, i32 noundef %6, ptr noundef nonnull align 4 dereferenceable(128) %7, ptr noundef %8) unnamed_addr #0 align 2 {
  %10 = getelementptr inbounds nuw i8, ptr %7, i64 88
  %11 = load i32, ptr %10, align 4, !tbaa !88
  %12 = and i32 %11, 16
  %.not = icmp eq i32 %12, 0
  %13 = select i1 %.not, i32 1, i32 2
  %14 = getelementptr inbounds nuw i8, ptr %0, i64 744
  store i32 %13, ptr %14, align 8, !tbaa !44
  %15 = getelementptr inbounds nuw i8, ptr %0, i64 748
  store i8 0, ptr %15, align 4, !tbaa !61
  %16 = load i32, ptr @_ZN37btSequentialImpulseConstraintSolverMt36s_minimumContactManifoldsForBatchingE, align 4, !tbaa !67
  %.not12 = icmp slt i32 %4, %16
  br i1 %.not12, label %25, label %17

17:                                               ; preds = %9
  %18 = load i8, ptr @_ZN37btSequentialImpulseConstraintSolverMt29s_allowNestedParallelForLoopsE, align 1, !tbaa !140, !range !63, !noundef !64
  %19 = trunc nuw i8 %18 to i1
  br i1 %19, label %22, label %20

20:                                               ; preds = %17
  %21 = tail call noundef zeroext i1 @_Z19btThreadsAreRunningv()
  br i1 %21, label %25, label %22

22:                                               ; preds = %20, %17
  store i8 1, ptr %15, align 4, !tbaa !61
  %23 = getelementptr inbounds nuw i8, ptr %0, i64 568
  store ptr %8, ptr %23, align 8, !tbaa !219
  %24 = getelementptr inbounds nuw i8, ptr %0, i64 736
  store ptr %8, ptr %24, align 8, !tbaa !220
  br label %25

25:                                               ; preds = %22, %20, %9
  %26 = tail call noundef float @_ZN35btSequentialImpulseConstraintSolver28solveGroupCacheFriendlySetupEPP17btCollisionObjectiPP20btPersistentManifoldiPP17btTypedConstraintiRK19btContactSolverInfoP12btIDebugDraw(ptr noundef nonnull align 8 dereferenceable(408) %0, ptr noundef %1, i32 noundef %2, ptr noundef %3, i32 noundef %4, ptr noundef %5, i32 noundef %6, ptr noundef nonnull align 4 dereferenceable(128) %7, ptr noundef %8)
  ret float 0.000000e+00
}